; Function Attrs: mustprogress nofree norecurse nosync nounwind willreturn memory(argmem: readwrite) uwtable
define void @b2DefaultShapeDef(ptr dead_on_unwind noalias writable writeonly sret(%struct.b2ShapeDef) align 8 captures(none) initializes((0, 72)) %0) local_unnamed_addr #3 {
  tail call void @llvm.memset.p0.i64(ptr noundef nonnull align 8 dereferenceable(72) %0, i8 0, i64 72, i1 false)
  %2 = getelementptr inbounds nuw i8, ptr %0, i64 8
  store float 0x3FE3333340000000, ptr %2, align 8, !tbaa !33
  %3 = getelementptr inbounds nuw i8, ptr %0, i64 28
  store float 1.000000e+00, ptr %3, align 4, !tbaa !37
  %4 = getelementptr inbounds nuw i8, ptr %0, i64 32
  tail call void @llvm.memcpy.p0.p0.i64(ptr noundef nonnull align 8 dereferenceable(24) %4, ptr noundef nonnull align 8 dereferenceable(24) @__const.b2DefaultFilter.filter, i64 24, i1 false), !tbaa.struct !38
  %5 = getelementptr inbounds nuw i8, ptr %0, i64 65
  store i8 1, ptr %5, align 1, !tbaa !41
  %6 = getelementptr inbounds nuw i8, ptr %0, i64 68
  store i32 1152023, ptr %6, align 4, !tbaa !42
  ret void
}